target datalayout = "e-m:e-p270:32:32-p271:32:32-p272:64:64-i64:64-i128:128-f80:128-n8:16:32:64-S128"
target triple = "x86_64-pc-linux-gnu"

%struct.lean_object = type { i32, i32 }
%struct.lean_ctor_object = type { %struct.lean_object, [0 x ptr] }

@l_Lake_instDataKindLeanLib___closed__2 = internal global ptr null, align 8

; Function Attrs: inlinehint nounwind uwtable
define internal ptr @lean_alloc_small_object(i32 noundef %0) #2 {
  %2 = alloca i32, align 4
  %3 = alloca ptr, align 8
  %4 = alloca ptr, align 8
  store i32 %0, ptr %2, align 4, !tbaa !8
  call void @lean_inc_heartbeat()
  %5 = load i32, ptr %2, align 4, !tbaa !8
  %6 = zext i32 %5 to i64
  %7 = call i64 @lean_align(i64 noundef %6, i64 noundef 8)
  %8 = trunc i64 %7 to i32
  store i32 %8, ptr %2, align 4, !tbaa !8
  call void @llvm.lifetime.start.p0(i64 8, ptr %3) #7
  %9 = load i32, ptr %2, align 4, !tbaa !8
  %10 = zext i32 %9 to i64
  %11 = call noalias ptr @mi_malloc_small(i64 noundef %10)
  store ptr %11, ptr %3, align 8, !tbaa !4
  %12 = load ptr, ptr %3, align 8, !tbaa !4
  %13 = icmp eq ptr %12, null
  br i1 %13, label %14, label %15

14:                                               ; preds = %1
  call void @lean_internal_panic_out_of_memory() #8
  unreachable

15:                                               ; preds = %1
  call void @llvm.lifetime.start.p0(i64 8, ptr %4) #7
  %16 = load ptr, ptr %3, align 8, !tbaa !4
  store ptr %16, ptr %4, align 8, !tbaa !4
  %17 = load i32, ptr %2, align 4, !tbaa !8
  %18 = load ptr, ptr %4, align 8, !tbaa !4
  %19 = getelementptr inbounds nuw %struct.lean_object, ptr %18, i32 0, i32 1
  %20 = load i32, ptr %19, align 4
  %21 = and i32 %17, 65535
  %22 = and i32 %20, -65536
  %23 = or i32 %22, %21
  store i32 %23, ptr %19, align 4
  %24 = load ptr, ptr %4, align 8, !tbaa !4
  call void @llvm.lifetime.end.p0(i64 8, ptr %4) #7
  call void @llvm.lifetime.end.p0(i64 8, ptr %3) #7
  ret ptr %24
}

; Function Attrs: inlinehint nounwind uwtable
define internal i64 @lean_align(i64 noundef %0, i64 noundef %1) #2 {
  %3 = alloca i64, align 8
  %4 = alloca i64, align 8
  store i64 %0, ptr %3, align 8, !tbaa !19
  store i64 %1, ptr %4, align 8, !tbaa !19
  %5 = load i64, ptr %3, align 8, !tbaa !19
  %6 = load i64, ptr %4, align 8, !tbaa !19
  %7 = udiv i64 %5, %6
  %8 = load i64, ptr %4, align 8, !tbaa !19
  %9 = mul i64 %7, %8
  %10 = load i64, ptr %4, align 8, !tbaa !19
  %11 = load i64, ptr %3, align 8, !tbaa !19
  %12 = load i64, ptr %4, align 8, !tbaa !19
  %13 = urem i64 %11, %12
  %14 = icmp ne i64 %13, 0
  %15 = zext i1 %14 to i32
  %16 = sext i32 %15 to i64
  %17 = mul i64 %10, %16
  %18 = add i64 %9, %17
  ret i64 %18
}

; Function Attrs: inlinehint nounwind uwtable
define internal zeroext i1 @lean_is_st(ptr noundef %0) #2 {
  %2 = alloca ptr, align 8
  store ptr %0, ptr %2, align 8, !tbaa !4
  %3 = load ptr, ptr %2, align 8, !tbaa !4
  %4 = getelementptr inbounds nuw %struct.lean_object, ptr %3, i32 0, i32 0
  %5 = load i32, ptr %4, align 4, !tbaa !13
  %6 = icmp sgt i32 %5, 0
  ret i1 %6
}

; Function Attrs: inlinehint nounwind uwtable
define internal ptr @lean_to_ctor(ptr noundef %0) #2 {
  %2 = alloca ptr, align 8
  store ptr %0, ptr %2, align 8, !tbaa !4
  %3 = load ptr, ptr %2, align 8, !tbaa !4
  ret ptr %3
}

; Function Attrs: inlinehint nounwind uwtable
define internal void @lean_set_st_header(ptr noundef %0, i32 noundef %1, i32 noundef %2) #2 {
  %4 = alloca ptr, align 8
  %5 = alloca i32, align 4
  %6 = alloca i32, align 4
  store ptr %0, ptr %4, align 8, !tbaa !4
  store i32 %1, ptr %5, align 4, !tbaa !8
  store i32 %2, ptr %6, align 4, !tbaa !8
  %7 = load ptr, ptr %4, align 8, !tbaa !4
  %8 = getelementptr inbounds nuw %struct.lean_object, ptr %7, i32 0, i32 0
  store i32 1, ptr %8, align 4, !tbaa !13
  %9 = load i32, ptr %5, align 4, !tbaa !8
  %10 = load ptr, ptr %4, align 8, !tbaa !4
  %11 = getelementptr inbounds nuw %struct.lean_object, ptr %10, i32 0, i32 1
  %12 = load i32, ptr %11, align 4
  %13 = and i32 %9, 255
  %14 = shl i32 %13, 24
  %15 = and i32 %12, 16777215
  %16 = or i32 %15, %14
  store i32 %16, ptr %11, align 4
  %17 = load i32, ptr %6, align 4, !tbaa !8
  %18 = load ptr, ptr %4, align 8, !tbaa !4
  %19 = getelementptr inbounds nuw %struct.lean_object, ptr %18, i32 0, i32 1
  %20 = load i32, ptr %19, align 4
  %21 = and i32 %17, 255
  %22 = shl i32 %21, 16
  %23 = and i32 %20, -16711681
  %24 = or i32 %23, %22
  store i32 %24, ptr %19, align 4
  ret void
}

; Function Attrs: inlinehint nounwind uwtable
define internal ptr @lean_alloc_ctor_memory(i32 noundef %0) #2 {
  %2 = alloca i32, align 4
  %3 = alloca i32, align 4
  %4 = alloca ptr, align 8
  %5 = alloca ptr, align 8
  store i32 %0, ptr %2, align 4, !tbaa !8
  call void @llvm.lifetime.start.p0(i64 4, ptr %3) #7
  %6 = load i32, ptr %2, align 4, !tbaa !8
  %7 = zext i32 %6 to i64
  %8 = call i64 @lean_align(i64 noundef %7, i64 noundef 8)
  %9 = trunc i64 %8 to i32
  store i32 %9, ptr %3, align 4, !tbaa !8
  call void @llvm.lifetime.start.p0(i64 8, ptr %4) #7
  %10 = load i32, ptr %2, align 4, !tbaa !8
  %11 = call ptr @lean_alloc_small_object(i32 noundef %10)
  store ptr %11, ptr %4, align 8, !tbaa !4
  %12 = load i32, ptr %3, align 4, !tbaa !8
  %13 = load i32, ptr %2, align 4, !tbaa !8
  %14 = icmp ugt i32 %12, %13
  br i1 %14, label %15, label %22

15:                                               ; preds = %1
  call void @llvm.lifetime.start.p0(i64 8, ptr %5) #7
  %16 = load ptr, ptr %4, align 8, !tbaa !4
  %17 = load i32, ptr %3, align 4, !tbaa !8
  %18 = zext i32 %17 to i64
  %19 = getelementptr inbounds nuw i8, ptr %16, i64 %18
  store ptr %19, ptr %5, align 8, !tbaa !21
  %20 = load ptr, ptr %5, align 8, !tbaa !21
  %21 = getelementptr inbounds i64, ptr %20, i64 -1
  store i64 0, ptr %21, align 8, !tbaa !19
  call void @llvm.lifetime.end.p0(i64 8, ptr %5) #7
  br label %22

22:                                               ; preds = %15, %1
  %23 = load ptr, ptr %4, align 8, !tbaa !4
  call void @llvm.lifetime.end.p0(i64 8, ptr %4) #7
  call void @llvm.lifetime.end.p0(i64 4, ptr %3) #7
  ret ptr %23
}

; Function Attrs: alwaysinline nounwind uwtable
define internal void @lean_dec_ref(ptr noundef %0) #3 {
  %2 = alloca ptr, align 8
  store ptr %0, ptr %2, align 8, !tbaa !4
  %3 = load ptr, ptr %2, align 8, !tbaa !4
  %4 = getelementptr inbounds nuw %struct.lean_object, ptr %3, i32 0, i32 0
  %5 = load i32, ptr %4, align 4, !tbaa !13
  %6 = icmp sgt i32 %5, 1
  %7 = zext i1 %6 to i32
  %8 = sext i32 %7 to i64
  %9 = call i64 @llvm.expect.i64(i64 %8, i64 1)
  %10 = icmp ne i64 %9, 0
  br i1 %10, label %11, label %16

11:                                               ; preds = %1
  %12 = load ptr, ptr %2, align 8, !tbaa !4
  %13 = getelementptr inbounds nuw %struct.lean_object, ptr %12, i32 0, i32 0
  %14 = load i32, ptr %13, align 4, !tbaa !13
  %15 = add i32 %14, -1
  store i32 %15, ptr %13, align 4, !tbaa !13
  br label %24

16:                                               ; preds = %1
  %17 = load ptr, ptr %2, align 8, !tbaa !4
  %18 = getelementptr inbounds nuw %struct.lean_object, ptr %17, i32 0, i32 0
  %19 = load i32, ptr %18, align 4, !tbaa !13
  %20 = icmp ne i32 %19, 0
  br i1 %20, label %21, label %23

21:                                               ; preds = %16
  %22 = load ptr, ptr %2, align 8, !tbaa !4
  call void @lean_dec_ref_cold(ptr noundef %22)
  br label %23

23:                                               ; preds = %21, %16
  br label %24

24:                                               ; preds = %23, %11
  ret void
}

; Function Attrs: inlinehint nounwind uwtable
define internal void @lean_inc_ref(ptr noundef %0) #2 {
  %2 = alloca ptr, align 8
  store ptr %0, ptr %2, align 8, !tbaa !4
  %3 = load ptr, ptr %2, align 8, !tbaa !4
  %4 = call zeroext i1 @lean_is_st(ptr noundef %3)
  %5 = zext i1 %4 to i64
  %6 = call i64 @llvm.expect.i64(i64 %5, i64 1)
  %7 = icmp ne i64 %6, 0
  br i1 %7, label %8, label %13

8:                                                ; preds = %1
  %9 = load ptr, ptr %2, align 8, !tbaa !4
  %10 = getelementptr inbounds nuw %struct.lean_object, ptr %9, i32 0, i32 0
  %11 = load i32, ptr %10, align 4, !tbaa !13
  %12 = add i32 %11, 1
  store i32 %12, ptr %10, align 4, !tbaa !13
  br label %21

13:                                               ; preds = %1
  %14 = load ptr, ptr %2, align 8, !tbaa !4
  %15 = getelementptr inbounds nuw %struct.lean_object, ptr %14, i32 0, i32 0
  %16 = load i32, ptr %15, align 4, !tbaa !13
  %17 = icmp ne i32 %16, 0
  br i1 %17, label %18, label %20

18:                                               ; preds = %13
  %19 = load ptr, ptr %2, align 8, !tbaa !4
  call void @lean_inc_ref_cold(ptr noundef %19)
  br label %20

20:                                               ; preds = %18, %13
  br label %21

21:                                               ; preds = %20, %8
  ret void
}

; Function Attrs: alwaysinline nounwind uwtable
define internal zeroext i1 @lean_is_scalar(ptr noundef %0) #3 {
  %2 = alloca ptr, align 8
  store ptr %0, ptr %2, align 8, !tbaa !4
  %3 = load ptr, ptr %2, align 8, !tbaa !4
  %4 = ptrtoint ptr %3 to i64
  %5 = and i64 %4, 1
  %6 = icmp eq i64 %5, 1
  ret i1 %6
}

; Function Attrs: inlinehint nounwind uwtable
define internal ptr @lean_ctor_obj_cptr(ptr noundef %0) #2 {
  %2 = alloca ptr, align 8
  store ptr %0, ptr %2, align 8, !tbaa !4
  %3 = load ptr, ptr %2, align 8, !tbaa !4
  %4 = call ptr @lean_to_ctor(ptr noundef %3)
  %5 = getelementptr inbounds nuw %struct.lean_ctor_object, ptr %4, i32 0, i32 1
  %6 = getelementptr inbounds [0 x ptr], ptr %5, i64 0, i64 0
  ret ptr %6
}

; Function Attrs: inlinehint nounwind uwtable
define internal void @lean_ctor_set(ptr noundef %0, i32 noundef %1, ptr noundef %2) #2 {
  %4 = alloca ptr, align 8
  %5 = alloca i32, align 4
  %6 = alloca ptr, align 8
  store ptr %0, ptr %4, align 8, !tbaa !4
  store i32 %1, ptr %5, align 4, !tbaa !8
  store ptr %2, ptr %6, align 8, !tbaa !4
  %7 = load ptr, ptr %6, align 8, !tbaa !4
  %8 = load ptr, ptr %4, align 8, !tbaa !4
  %9 = call ptr @lean_ctor_obj_cptr(ptr noundef %8)
  %10 = load i32, ptr %5, align 4, !tbaa !8
  %11 = zext i32 %10 to i64
  %12 = getelementptr inbounds nuw ptr, ptr %9, i64 %11
  store ptr %7, ptr %12, align 8, !tbaa !4
  ret void
}

; Function Attrs: inlinehint nounwind uwtable
define internal ptr @lean_alloc_ctor(i32 noundef %0, i32 noundef %1, i32 noundef %2) #2 {
  %4 = alloca i32, align 4
  %5 = alloca i32, align 4
  %6 = alloca i32, align 4
  %7 = alloca ptr, align 8
  store i32 %0, ptr %4, align 4, !tbaa !8
  store i32 %1, ptr %5, align 4, !tbaa !8
  store i32 %2, ptr %6, align 4, !tbaa !8
  call void @llvm.lifetime.start.p0(i64 8, ptr %7) #7
  %8 = load i32, ptr %5, align 4, !tbaa !8
  %9 = zext i32 %8 to i64
  %10 = mul i64 8, %9
  %11 = add i64 8, %10
  %12 = load i32, ptr %6, align 4, !tbaa !8
  %13 = zext i32 %12 to i64
  %14 = add i64 %11, %13
  %15 = trunc i64 %14 to i32
  %16 = call ptr @lean_alloc_ctor_memory(i32 noundef %15)
  store ptr %16, ptr %7, align 8, !tbaa !4
  %17 = load ptr, ptr %7, align 8, !tbaa !4
  %18 = load i32, ptr %4, align 4, !tbaa !8
  %19 = load i32, ptr %5, align 4, !tbaa !8
  call void @lean_set_st_header(ptr noundef %17, i32 noundef %18, i32 noundef %19)
  %20 = load ptr, ptr %7, align 8, !tbaa !4
  call void @llvm.lifetime.end.p0(i64 8, ptr %7) #7
  ret ptr %20
}

; Function Attrs: alwaysinline nounwind uwtable
define internal void @lean_dec(ptr noundef %0) #3 {
  %2 = alloca ptr, align 8
  store ptr %0, ptr %2, align 8, !tbaa !4
  %3 = load ptr, ptr %2, align 8, !tbaa !4
  %4 = call zeroext i1 @lean_is_scalar(ptr noundef %3)
  br i1 %4, label %7, label %5

5:                                                ; preds = %1
  %6 = load ptr, ptr %2, align 8, !tbaa !4
  call void @lean_dec_ref(ptr noundef %6)
  br label %7

7:                                                ; preds = %5, %1
  ret void
}

; Function Attrs: alwaysinline nounwind uwtable
define internal void @lean_inc(ptr noundef %0) #3 {
  %2 = alloca ptr, align 8
  store ptr %0, ptr %2, align 8, !tbaa !4
  %3 = load ptr, ptr %2, align 8, !tbaa !4
  %4 = call zeroext i1 @lean_is_scalar(ptr noundef %3)
  br i1 %4, label %7, label %5

5:                                                ; preds = %1
  %6 = load ptr, ptr %2, align 8, !tbaa !4
  call void @lean_inc_ref(ptr noundef %6)
  br label %7

7:                                                ; preds = %5, %1
  ret void
}

; Function Attrs: inlinehint nounwind uwtable
define internal ptr @lean_ctor_get(ptr noundef %0, i32 noundef %1) #2 {
  %3 = alloca ptr, align 8
  %4 = alloca i32, align 4
  store ptr %0, ptr %3, align 8, !tbaa !4
  store i32 %1, ptr %4, align 4, !tbaa !8
  %5 = load ptr, ptr %3, align 8, !tbaa !4
  %6 = call ptr @lean_ctor_obj_cptr(ptr noundef %5)
  %7 = load i32, ptr %4, align 4, !tbaa !8
  %8 = zext i32 %7 to i64
  %9 = getelementptr inbounds nuw ptr, ptr %6, i64 %8
  %10 = load ptr, ptr %9, align 8, !tbaa !4
  ret ptr %10
}

; Function Attrs: nounwind uwtable
define ptr @l_Lake_BuildInfo_libraryFacet(ptr noundef %0, ptr noundef %1) #0 {
  %3 = alloca ptr, align 8
  %4 = alloca ptr, align 8
  %5 = alloca ptr, align 8
  %6 = alloca ptr, align 8
  %7 = alloca ptr, align 8
  %8 = alloca ptr, align 8
  %9 = alloca ptr, align 8
  %10 = alloca ptr, align 8
  store ptr %0, ptr %3, align 8, !tbaa !4
  store ptr %1, ptr %4, align 8, !tbaa !4
  br label %11

11:                                               ; preds = %2
  call void @llvm.lifetime.start.p0(i64 8, ptr %5) #7
  call void @llvm.lifetime.start.p0(i64 8, ptr %6) #7
  call void @llvm.lifetime.start.p0(i64 8, ptr %7) #7
  call void @llvm.lifetime.start.p0(i64 8, ptr %8) #7
  call void @llvm.lifetime.start.p0(i64 8, ptr %9) #7
  call void @llvm.lifetime.start.p0(i64 8, ptr %10) #7
  %12 = load ptr, ptr %3, align 8, !tbaa !4
  %13 = call ptr @lean_ctor_get(ptr noundef %12, i32 noundef 0)
  store ptr %13, ptr %5, align 8, !tbaa !4
  %14 = load ptr, ptr %5, align 8, !tbaa !4
  call void @lean_inc(ptr noundef %14)
  %15 = load ptr, ptr %3, align 8, !tbaa !4
  %16 = call ptr @lean_ctor_get(ptr noundef %15, i32 noundef 1)
  store ptr %16, ptr %6, align 8, !tbaa !4
  %17 = load ptr, ptr %6, align 8, !tbaa !4
  call void @lean_inc(ptr noundef %17)
  %18 = load ptr, ptr %5, align 8, !tbaa !4
  %19 = call ptr @lean_ctor_get(ptr noundef %18, i32 noundef 0)
  store ptr %19, ptr %7, align 8, !tbaa !4
  %20 = load ptr, ptr %7, align 8, !tbaa !4
  call void @lean_inc(ptr noundef %20)
  %21 = load ptr, ptr %5, align 8, !tbaa !4
  call void @lean_dec(ptr noundef %21)
  %22 = call ptr @lean_alloc_ctor(i32 noundef 2, i32 noundef 2, i32 noundef 0)
  store ptr %22, ptr %8, align 8, !tbaa !4
  %23 = load ptr, ptr %8, align 8, !tbaa !4
  %24 = load ptr, ptr %7, align 8, !tbaa !4
  call void @lean_ctor_set(ptr noundef %23, i32 noundef 0, ptr noundef %24)
  %25 = load ptr, ptr %8, align 8, !tbaa !4
  %26 = load ptr, ptr %6, align 8, !tbaa !4
  call void @lean_ctor_set(ptr noundef %25, i32 noundef 1, ptr noundef %26)
  %27 = load ptr, ptr @l_Lake_instDataKindLeanLib___closed__2, align 8, !tbaa !4
  store ptr %27, ptr %9, align 8, !tbaa !4
  %28 = call ptr @lean_alloc_ctor(i32 noundef 1, i32 noundef 4, i32 noundef 0)
  store ptr %28, ptr %10, align 8, !tbaa !4
  %29 = load ptr, ptr %10, align 8, !tbaa !4
  %30 = load ptr, ptr %8, align 8, !tbaa !4
  call void @lean_ctor_set(ptr noundef %29, i32 noundef 0, ptr noundef %30)
  %31 = load ptr, ptr %10, align 8, !tbaa !4
  %32 = load ptr, ptr %9, align 8, !tbaa !4
  call void @lean_ctor_set(ptr noundef %31, i32 noundef 1, ptr noundef %32)
  %33 = load ptr, ptr %10, align 8, !tbaa !4
  %34 = load ptr, ptr %3, align 8, !tbaa !4
  call void @lean_ctor_set(ptr noundef %33, i32 noundef 2, ptr noundef %34)
  %35 = load ptr, ptr %10, align 8, !tbaa !4
  %36 = load ptr, ptr %4, align 8, !tbaa !4
  call void @lean_ctor_set(ptr noundef %35, i32 noundef 3, ptr noundef %36)
  %37 = load ptr, ptr %10, align 8, !tbaa !4
  call void @llvm.lifetime.end.p0(i64 8, ptr %10) #7
  call void @llvm.lifetime.end.p0(i64 8, ptr %9) #7
  call void @llvm.lifetime.end.p0(i64 8, ptr %8) #7
  call void @llvm.lifetime.end.p0(i64 8, ptr %7) #7
  call void @llvm.lifetime.end.p0(i64 8, ptr %6) #7
  call void @llvm.lifetime.end.p0(i64 8, ptr %5) #7
  ret ptr %37
}